target datalayout = "e-m:e-p270:32:32-p271:32:32-p272:64:64-i64:64-i128:128-f80:128-n8:16:32:64-S128"
target triple = "x86_64-pc-linux-gnu"

@bio_err = external global ptr, align 8
@.str.268 = private unnamed_addr constant [42 x i8] c"Could not convert PSK key '%s' to BIGNUM\0A\00", align 1
@.str.269 = private unnamed_addr constant [55 x i8] c"psk buffer of callback is too small (%d) for key (%d)\0A\00", align 1

; Function Attrs: nounwind uwtable
define internal i32 @psk_key2bn(ptr noundef %0, ptr noundef %1, i32 noundef %2) #0 {
  %4 = alloca i32, align 4
  %5 = alloca ptr, align 8
  %6 = alloca ptr, align 8
  %7 = alloca i32, align 4
  %8 = alloca i32, align 4
  %9 = alloca ptr, align 8
  %10 = alloca i32, align 4
  store ptr %0, ptr %5, align 8, !tbaa !11
  store ptr %1, ptr %6, align 8, !tbaa !11
  store i32 %2, ptr %7, align 4, !tbaa !4
  call void @llvm.lifetime.start.p0(i64 4, ptr %8) #10
  call void @llvm.lifetime.start.p0(i64 8, ptr %9) #10
  store ptr null, ptr %9, align 8, !tbaa !74
  %11 = load ptr, ptr %5, align 8, !tbaa !11
  %12 = call i32 @BN_hex2bn(ptr noundef %9, ptr noundef %11)
  store i32 %12, ptr %8, align 4, !tbaa !4
  %13 = load i32, ptr %8, align 4, !tbaa !4
  %14 = icmp ne i32 %13, 0
  br i1 %14, label %20, label %15

15:                                               ; preds = %3
  %16 = load ptr, ptr @bio_err, align 8, !tbaa !35
  %17 = load ptr, ptr %5, align 8, !tbaa !11
  %18 = call i32 (ptr, ptr, ...) @BIO_printf(ptr noundef %16, ptr noundef @.str.268, ptr noundef %17)
  %19 = load ptr, ptr %9, align 8, !tbaa !74
  call void @BN_free(ptr noundef %19)
  store i32 0, ptr %4, align 4
  store i32 1, ptr %10, align 4
  br label %42

20:                                               ; preds = %3
  %21 = load ptr, ptr %9, align 8, !tbaa !74
  %22 = call i32 @BN_num_bits(ptr noundef %21)
  %23 = add nsw i32 %22, 7
  %24 = sdiv i32 %23, 8
  %25 = load i32, ptr %7, align 4, !tbaa !4
  %26 = icmp sgt i32 %24, %25
  br i1 %26, label %27, label %36

27:                                               ; preds = %20
  %28 = load ptr, ptr @bio_err, align 8, !tbaa !35
  %29 = load i32, ptr %7, align 4, !tbaa !4
  %30 = load ptr, ptr %9, align 8, !tbaa !74
  %31 = call i32 @BN_num_bits(ptr noundef %30)
  %32 = add nsw i32 %31, 7
  %33 = sdiv i32 %32, 8
  %34 = call i32 (ptr, ptr, ...) @BIO_printf(ptr noundef %28, ptr noundef @.str.269, i32 noundef %29, i32 noundef %33)
  %35 = load ptr, ptr %9, align 8, !tbaa !74
  call void @BN_free(ptr noundef %35)
  store i32 0, ptr %4, align 4
  store i32 1, ptr %10, align 4
  br label %42

36:                                               ; preds = %20
  %37 = load ptr, ptr %9, align 8, !tbaa !74
  %38 = load ptr, ptr %6, align 8, !tbaa !11
  %39 = call i32 @BN_bn2bin(ptr noundef %37, ptr noundef %38)
  store i32 %39, ptr %8, align 4, !tbaa !4
  %40 = load ptr, ptr %9, align 8, !tbaa !74
  call void @BN_free(ptr noundef %40)
  %41 = load i32, ptr %8, align 4, !tbaa !4
  store i32 %41, ptr %4, align 4
  store i32 1, ptr %10, align 4
  br label %42

42:                                               ; preds = %36, %27, %15
  call void @llvm.lifetime.end.p0(i64 8, ptr %9) #10
  call void @llvm.lifetime.end.p0(i64 4, ptr %8) #10
  %43 = load i32, ptr %4, align 4
  ret i32 %43
}