; Function Attrs: nounwind uwtable
define internal fastcc i32 @psk_key2bn(ptr noundef %0, ptr noundef %1, i32 noundef %2) unnamed_addr #7 {
  %4 = alloca ptr, align 8
  call void @llvm.lifetime.start.p0(i64 8, ptr nonnull %4) #23
  store ptr null, ptr %4, align 8, !tbaa !47
  %5 = call i32 @BN_hex2bn(ptr noundef nonnull %4, ptr noundef %0) #23
  %.not = icmp eq i32 %5, 0
  br i1 %.not, label %6, label %9

6:                                                ; preds = %3
  %7 = load ptr, ptr @bio_err, align 8, !tbaa !19
  %8 = call i32 (ptr, ptr, ...) @BIO_printf(ptr noundef %7, ptr noundef nonnull @.str.268, ptr noundef %0) #23
  br label %25

9:                                                ; preds = %3
  %10 = load ptr, ptr %4, align 8, !tbaa !47
  %11 = call i32 @BN_num_bits(ptr noundef %10) #23
  %12 = add nsw i32 %11, 7
  %13 = sdiv i32 %12, 8
  %14 = icmp sgt i32 %13, %2
  br i1 %14, label %15, label %22

15:                                               ; preds = %9
  %16 = load ptr, ptr @bio_err, align 8, !tbaa !19
  %17 = load ptr, ptr %4, align 8, !tbaa !47
  %18 = call i32 @BN_num_bits(ptr noundef %17) #23
  %19 = add nsw i32 %18, 7
  %20 = sdiv i32 %19, 8
  %21 = call i32 (ptr, ptr, ...) @BIO_printf(ptr noundef %16, ptr noundef nonnull @.str.269, i32 noundef %2, i32 noundef %20) #23
  br label %25

22:                                               ; preds = %9
  %23 = load ptr, ptr %4, align 8, !tbaa !47
  %24 = call i32 @BN_bn2bin(ptr noundef %23, ptr noundef %1) #23
  br label %25

25:                                               ; preds = %22, %15, %6
  %.0 = phi i32 [ 0, %15 ], [ %24, %22 ], [ 0, %6 ]
  %26 = load ptr, ptr %4, align 8, !tbaa !47
  call void @BN_free(ptr noundef %26) #23
  call void @llvm.lifetime.end.p0(i64 8, ptr nonnull %4) #23
  ret i32 %.0
}